target datalayout = "e-m:e-p270:32:32-p271:32:32-p272:64:64-i64:64-i128:128-f80:128-n8:16:32:64-S128"
target triple = "x86_64-pc-linux-gnu"

%struct._php_stream = type { ptr, ptr, %struct._php_stream_filter_chain, %struct._php_stream_filter_chain, ptr, ptr, %struct._zval_struct, i16, [16 x i8], i32, ptr, ptr, ptr, ptr, i64, ptr, i64, i64, i64, i64, ptr }
%struct._php_stream_filter_chain = type { ptr, ptr, ptr }
%struct._zval_struct = type { %union._zend_value, %union.anon, %union.anon.2 }
%union._zend_value = type { i64 }
%union.anon = type { i32 }
%union.anon.2 = type { i32 }
%struct.php_stream_memory_data = type { ptr, i64, i32 }
%struct._zend_string = type { %struct._zend_refcounted_h, i64, i64, [1 x i8] }
%struct._zend_refcounted_h = type { i32, %union.anon.3 }
%union.anon.3 = type { i32 }

; Function Attrs: nounwind uwtable
define internal i64 @php_stream_memory_read(ptr noundef %0, ptr noundef %1, i64 noundef %2) #0 {
  %4 = alloca ptr, align 8
  %5 = alloca ptr, align 8
  %6 = alloca i64, align 8
  %7 = alloca ptr, align 8
  store ptr %0, ptr %4, align 8
  store ptr %1, ptr %5, align 8
  store i64 %2, ptr %6, align 8
  %8 = load ptr, ptr %4, align 8
  %9 = getelementptr inbounds %struct._php_stream, ptr %8, i32 0, i32 1
  %10 = load ptr, ptr %9, align 8
  store ptr %10, ptr %7, align 8
  %11 = load ptr, ptr %7, align 8
  %12 = getelementptr inbounds %struct.php_stream_memory_data, ptr %11, i32 0, i32 1
  %13 = load i64, ptr %12, align 8
  %14 = load ptr, ptr %7, align 8
  %15 = getelementptr inbounds %struct.php_stream_memory_data, ptr %14, i32 0, i32 0
  %16 = load ptr, ptr %15, align 8
  %17 = getelementptr inbounds %struct._zend_string, ptr %16, i32 0, i32 2
  %18 = load i64, ptr %17, align 8
  %19 = icmp uge i64 %13, %18
  br i1 %19, label %20, label %26

20:                                               ; preds = %3
  %21 = load ptr, ptr %4, align 8
  %22 = getelementptr inbounds %struct._php_stream, ptr %21, i32 0, i32 7
  %23 = load i16, ptr %22, align 8
  %24 = and i16 %23, -9
  %25 = or i16 %24, 8
  store i16 %25, ptr %22, align 8
  store i64 0, ptr %6, align 8
  br label %71

26:                                               ; preds = %3
  %27 = load ptr, ptr %7, align 8
  %28 = getelementptr inbounds %struct.php_stream_memory_data, ptr %27, i32 0, i32 1
  %29 = load i64, ptr %28, align 8
  %30 = load i64, ptr %6, align 8
  %31 = add i64 %29, %30
  %32 = load ptr, ptr %7, align 8
  %33 = getelementptr inbounds %struct.php_stream_memory_data, ptr %32, i32 0, i32 0
  %34 = load ptr, ptr %33, align 8
  %35 = getelementptr inbounds %struct._zend_string, ptr %34, i32 0, i32 2
  %36 = load i64, ptr %35, align 8
  %37 = icmp ugt i64 %31, %36
  br i1 %37, label %38, label %48

38:                                               ; preds = %26
  %39 = load ptr, ptr %7, align 8
  %40 = getelementptr inbounds %struct.php_stream_memory_data, ptr %39, i32 0, i32 0
  %41 = load ptr, ptr %40, align 8
  %42 = getelementptr inbounds %struct._zend_string, ptr %41, i32 0, i32 2
  %43 = load i64, ptr %42, align 8
  %44 = load ptr, ptr %7, align 8
  %45 = getelementptr inbounds %struct.php_stream_memory_data, ptr %44, i32 0, i32 1
  %46 = load i64, ptr %45, align 8
  %47 = sub i64 %43, %46
  store i64 %47, ptr %6, align 8
  br label %48

48:                                               ; preds = %38, %26
  %49 = load i64, ptr %6, align 8
  %50 = icmp ne i64 %49, 0
  br i1 %50, label %51, label %70

51:                                               ; preds = %48
  %52 = load ptr, ptr %5, align 8
  %53 = icmp ne ptr %52, null
  call void @llvm.assume(i1 %53)
  %54 = load ptr, ptr %5, align 8
  %55 = load ptr, ptr %7, align 8
  %56 = getelementptr inbounds %struct.php_stream_memory_data, ptr %55, i32 0, i32 0
  %57 = load ptr, ptr %56, align 8
  %58 = getelementptr inbounds %struct._zend_string, ptr %57, i32 0, i32 3
  %59 = getelementptr inbounds [1 x i8], ptr %58, i64 0, i64 0
  %60 = load ptr, ptr %7, align 8
  %61 = getelementptr inbounds %struct.php_stream_memory_data, ptr %60, i32 0, i32 1
  %62 = load i64, ptr %61, align 8
  %63 = getelementptr inbounds i8, ptr %59, i64 %62
  %64 = load i64, ptr %6, align 8
  call void @llvm.memcpy.p0.p0.i64(ptr align 1 %54, ptr align 1 %63, i64 %64, i1 false)
  %65 = load i64, ptr %6, align 8
  %66 = load ptr, ptr %7, align 8
  %67 = getelementptr inbounds %struct.php_stream_memory_data, ptr %66, i32 0, i32 1
  %68 = load i64, ptr %67, align 8
  %69 = add i64 %68, %65
  store i64 %69, ptr %67, align 8
  br label %70

70:                                               ; preds = %51, %48
  br label %71

71:                                               ; preds = %70, %20
  %72 = load i64, ptr %6, align 8
  ret i64 %72
}