; Function Attrs: mustprogress nofree norecurse nosync nounwind willreturn memory(readwrite, inaccessiblemem: write) uwtable
define internal i64 @php_stream_memory_read(ptr nocapture noundef %0, ptr noundef writeonly %1, i64 noundef %2) #1 {
  %4 = getelementptr inbounds i8, ptr %0, i64 8
  %5 = load ptr, ptr %4, align 8
  %6 = getelementptr inbounds i8, ptr %5, i64 8
  %7 = load i64, ptr %6, align 8
  %8 = load ptr, ptr %5, align 8
  %9 = getelementptr inbounds i8, ptr %8, i64 16
  %10 = load i64, ptr %9, align 8
  %.not = icmp ult i64 %7, %10
  br i1 %.not, label %15, label %11

11:                                               ; preds = %3
  %12 = getelementptr inbounds i8, ptr %0, i64 96
  %13 = load i16, ptr %12, align 8
  %14 = or i16 %13, 8
  store i16 %14, ptr %12, align 8
  br label %25

15:                                               ; preds = %3
  %16 = add i64 %7, %2
  %17 = icmp ugt i64 %16, %10
  %18 = sub i64 %10, %7
  %spec.select = select i1 %17, i64 %18, i64 %2
  %.not19 = icmp eq i64 %spec.select, 0
  br i1 %.not19, label %25, label %19

19:                                               ; preds = %15
  %20 = icmp ne ptr %1, null
  tail call void @llvm.assume(i1 %20)
  %21 = getelementptr inbounds i8, ptr %8, i64 24
  %22 = getelementptr inbounds i8, ptr %21, i64 %7
  tail call void @llvm.memcpy.p0.p0.i64(ptr nonnull align 1 %1, ptr nonnull align 1 %22, i64 %spec.select, i1 false)
  %23 = load i64, ptr %6, align 8
  %24 = add i64 %23, %spec.select
  store i64 %24, ptr %6, align 8
  br label %25

25:                                               ; preds = %15, %19, %11
  %.1 = phi i64 [ 0, %11 ], [ %spec.select, %19 ], [ 0, %15 ]
  ret i64 %.1
}